target datalayout = "e-m:e-p270:32:32-p271:32:32-p272:64:64-i64:64-i128:128-f80:128-n8:16:32:64-S128"
target triple = "x86_64-pc-linux-gnu"

%struct.NFA = type { i32, i32, i8, i8, i8, i8, %union.anon, i32, i32, i32, i32, i32, i32, i32, [20 x i8] }
%union.anon = type { i16 }

; Function Attrs: nounwind uwtable
define hidden signext i8 @nfaQueueCompressState(ptr noundef %0, ptr noundef %1, i64 noundef %2) #0 {
  %4 = alloca i8, align 1
  %5 = alloca ptr, align 8
  %6 = alloca ptr, align 8
  %7 = alloca i64, align 8
  %8 = alloca i32, align 4
  %9 = alloca i32, align 4
  %10 = alloca i32, align 4
  %11 = alloca i32, align 4
  store ptr %0, ptr %5, align 8
  store ptr %1, ptr %6, align 8
  store i64 %2, ptr %7, align 8
  %12 = load ptr, ptr %5, align 8
  %13 = getelementptr inbounds nuw %struct.NFA, ptr %12, i32 0, i32 2
  %14 = load i8, ptr %13, align 8
  %15 = zext i8 %14 to i32
  switch i32 %15, label %133 [
    i32 0, label %16
    i32 1, label %21
    i32 2, label %26
    i32 3, label %31
    i32 4, label %36
    i32 5, label %41
    i32 6, label %46
    i32 7, label %51
    i32 8, label %56
    i32 9, label %61
    i32 10, label %66
    i32 11, label %71
    i32 12, label %76
    i32 13, label %81
    i32 14, label %86
    i32 15, label %91
    i32 16, label %96
    i32 17, label %101
    i32 18, label %106
    i32 19, label %111
    i32 20, label %116
    i32 21, label %121
    i32 22, label %124
    i32 23, label %127
    i32 24, label %130
  ]

16:                                               ; preds = %3
  %17 = load ptr, ptr %5, align 8
  %18 = load ptr, ptr %6, align 8
  %19 = load i64, ptr %7, align 8
  %20 = call signext i8 @nfaExecLimEx32_queueCompressState(ptr noundef %17, ptr noundef %18, i64 noundef %19)
  store i8 %20, ptr %4, align 1
  br label %135

21:                                               ; preds = %3
  %22 = load ptr, ptr %5, align 8
  %23 = load ptr, ptr %6, align 8
  %24 = load i64, ptr %7, align 8
  %25 = call signext i8 @nfaExecLimEx64_queueCompressState(ptr noundef %22, ptr noundef %23, i64 noundef %24)
  store i8 %25, ptr %4, align 1
  br label %135

26:                                               ; preds = %3
  %27 = load ptr, ptr %5, align 8
  %28 = load ptr, ptr %6, align 8
  %29 = load i64, ptr %7, align 8
  %30 = call signext i8 @nfaExecLimEx128_queueCompressState(ptr noundef %27, ptr noundef %28, i64 noundef %29)
  store i8 %30, ptr %4, align 1
  br label %135

31:                                               ; preds = %3
  %32 = load ptr, ptr %5, align 8
  %33 = load ptr, ptr %6, align 8
  %34 = load i64, ptr %7, align 8
  %35 = call signext i8 @nfaExecLimEx256_queueCompressState(ptr noundef %32, ptr noundef %33, i64 noundef %34)
  store i8 %35, ptr %4, align 1
  br label %135

36:                                               ; preds = %3
  %37 = load ptr, ptr %5, align 8
  %38 = load ptr, ptr %6, align 8
  %39 = load i64, ptr %7, align 8
  %40 = call signext i8 @nfaExecLimEx384_queueCompressState(ptr noundef %37, ptr noundef %38, i64 noundef %39)
  store i8 %40, ptr %4, align 1
  br label %135

41:                                               ; preds = %3
  %42 = load ptr, ptr %5, align 8
  %43 = load ptr, ptr %6, align 8
  %44 = load i64, ptr %7, align 8
  %45 = call signext i8 @nfaExecLimEx512_queueCompressState(ptr noundef %42, ptr noundef %43, i64 noundef %44)
  store i8 %45, ptr %4, align 1
  br label %135

46:                                               ; preds = %3
  %47 = load ptr, ptr %5, align 8
  %48 = load ptr, ptr %6, align 8
  %49 = load i64, ptr %7, align 8
  %50 = call signext i8 @nfaExecMcClellan8_queueCompressState(ptr noundef %47, ptr noundef %48, i64 noundef %49)
  store i8 %50, ptr %4, align 1
  br label %135

51:                                               ; preds = %3
  %52 = load ptr, ptr %5, align 8
  %53 = load ptr, ptr %6, align 8
  %54 = load i64, ptr %7, align 8
  %55 = call signext i8 @nfaExecMcClellan16_queueCompressState(ptr noundef %52, ptr noundef %53, i64 noundef %54)
  store i8 %55, ptr %4, align 1
  br label %135

56:                                               ; preds = %3
  %57 = load ptr, ptr %5, align 8
  %58 = load ptr, ptr %6, align 8
  %59 = load i64, ptr %7, align 8
  %60 = call signext i8 @nfaExecGough8_queueCompressState(ptr noundef %57, ptr noundef %58, i64 noundef %59)
  store i8 %60, ptr %4, align 1
  br label %135

61:                                               ; preds = %3
  %62 = load ptr, ptr %5, align 8
  %63 = load ptr, ptr %6, align 8
  %64 = load i64, ptr %7, align 8
  %65 = call signext i8 @nfaExecGough16_queueCompressState(ptr noundef %62, ptr noundef %63, i64 noundef %64)
  store i8 %65, ptr %4, align 1
  br label %135

66:                                               ; preds = %3
  %67 = load ptr, ptr %5, align 8
  %68 = load ptr, ptr %6, align 8
  %69 = load i64, ptr %7, align 8
  %70 = call signext i8 @nfaExecMpv_queueCompressState(ptr noundef %67, ptr noundef %68, i64 noundef %69)
  store i8 %70, ptr %4, align 1
  br label %135

71:                                               ; preds = %3
  %72 = load ptr, ptr %5, align 8
  %73 = load ptr, ptr %6, align 8
  %74 = load i64, ptr %7, align 8
  %75 = call signext i8 @nfaExecLbrDot_queueCompressState(ptr noundef %72, ptr noundef %73, i64 noundef %74)
  store i8 %75, ptr %4, align 1
  br label %135

76:                                               ; preds = %3
  %77 = load ptr, ptr %5, align 8
  %78 = load ptr, ptr %6, align 8
  %79 = load i64, ptr %7, align 8
  %80 = call signext i8 @nfaExecLbrVerm_queueCompressState(ptr noundef %77, ptr noundef %78, i64 noundef %79)
  store i8 %80, ptr %4, align 1
  br label %135

81:                                               ; preds = %3
  %82 = load ptr, ptr %5, align 8
  %83 = load ptr, ptr %6, align 8
  %84 = load i64, ptr %7, align 8
  %85 = call signext i8 @nfaExecLbrNVerm_queueCompressState(ptr noundef %82, ptr noundef %83, i64 noundef %84)
  store i8 %85, ptr %4, align 1
  br label %135

86:                                               ; preds = %3
  %87 = load ptr, ptr %5, align 8
  %88 = load ptr, ptr %6, align 8
  %89 = load i64, ptr %7, align 8
  %90 = call signext i8 @nfaExecLbrShuf_queueCompressState(ptr noundef %87, ptr noundef %88, i64 noundef %89)
  store i8 %90, ptr %4, align 1
  br label %135

91:                                               ; preds = %3
  %92 = load ptr, ptr %5, align 8
  %93 = load ptr, ptr %6, align 8
  %94 = load i64, ptr %7, align 8
  %95 = call signext i8 @nfaExecLbrTruf_queueCompressState(ptr noundef %92, ptr noundef %93, i64 noundef %94)
  store i8 %95, ptr %4, align 1
  br label %135

96:                                               ; preds = %3
  %97 = load ptr, ptr %5, align 8
  %98 = load ptr, ptr %6, align 8
  %99 = load i64, ptr %7, align 8
  %100 = call signext i8 @nfaExecCastle_queueCompressState(ptr noundef %97, ptr noundef %98, i64 noundef %99)
  store i8 %100, ptr %4, align 1
  br label %135

101:                                              ; preds = %3
  %102 = load ptr, ptr %5, align 8
  %103 = load ptr, ptr %6, align 8
  %104 = load i64, ptr %7, align 8
  %105 = call signext i8 @nfaExecSheng_queueCompressState(ptr noundef %102, ptr noundef %103, i64 noundef %104)
  store i8 %105, ptr %4, align 1
  br label %135

106:                                              ; preds = %3
  %107 = load ptr, ptr %5, align 8
  %108 = load ptr, ptr %6, align 8
  %109 = load i64, ptr %7, align 8
  %110 = call signext i8 @nfaExecTamarama_queueCompressState(ptr noundef %107, ptr noundef %108, i64 noundef %109)
  store i8 %110, ptr %4, align 1
  br label %135

111:                                              ; preds = %3
  %112 = load ptr, ptr %5, align 8
  %113 = load ptr, ptr %6, align 8
  %114 = load i64, ptr %7, align 8
  %115 = call signext i8 @nfaExecMcSheng8_queueCompressState(ptr noundef %112, ptr noundef %113, i64 noundef %114)
  store i8 %115, ptr %4, align 1
  br label %135

116:                                              ; preds = %3
  %117 = load ptr, ptr %5, align 8
  %118 = load ptr, ptr %6, align 8
  %119 = load i64, ptr %7, align 8
  %120 = call signext i8 @nfaExecMcSheng16_queueCompressState(ptr noundef %117, ptr noundef %118, i64 noundef %119)
  store i8 %120, ptr %4, align 1
  br label %135

121:                                              ; preds = %3
  store i32 0, ptr %8, align 4
  %122 = load i32, ptr %8, align 4
  %123 = trunc i32 %122 to i8
  store i8 %123, ptr %4, align 1
  br label %135

124:                                              ; preds = %3
  store i32 0, ptr %9, align 4
  %125 = load i32, ptr %9, align 4
  %126 = trunc i32 %125 to i8
  store i8 %126, ptr %4, align 1
  br label %135

127:                                              ; preds = %3
  store i32 0, ptr %10, align 4
  %128 = load i32, ptr %10, align 4
  %129 = trunc i32 %128 to i8
  store i8 %129, ptr %4, align 1
  br label %135

130:                                              ; preds = %3
  store i32 0, ptr %11, align 4
  %131 = load i32, ptr %11, align 4
  %132 = trunc i32 %131 to i8
  store i8 %132, ptr %4, align 1
  br label %135

133:                                              ; preds = %3
  br label %134

134:                                              ; preds = %133
  store i8 0, ptr %4, align 1
  br label %135

135:                                              ; preds = %134, %130, %127, %124, %121, %116, %111, %106, %101, %96, %91, %86, %81, %76, %71, %66, %61, %56, %51, %46, %41, %36, %31, %26, %21, %16
  %136 = load i8, ptr %4, align 1
  ret i8 %136
}